#include <math.h>
#include <stdio.h>
#include <stdlib.h>
#include <string.h>
#define LEN 100
#define ASCII 100
#define MAX_N 100
#define MAX_N 100
#define L 100
#define MAX 100
#define ASC 100
#define null 0
#define Len 100
#define M 100
#define SUM 100
#define NUMBER 100
#define SIZE 100
#define N 100
#define Max 100
#define X 100
#define Y 100
#define A 100
#define MAXN 100
#define MAXSIZE 100

void main()
{
    
	int a[1000];
	char s[1000][30],ch;
	int b[30]={0};
	int i,k;
	int n;
    int max=0;
    
	scanf("%d",&n);
	for(i=0;i<n;i++)
			scanf("%d %s",&a[i],s[i]);
	for(i=0;i<n;i++)
		for(ch='A';ch<='Z';ch++)
			if(strchr(s[i],ch)!=NULL)
				b[ch-65]++;


    for(i=0;i<=26;i++)
		if(b[i]>max)
		{
			max=b[i];
			k=i;
		}
		printf("%c\n%d\n",k+65,max);
		ch=k+65;
    for(i=0;i<n;i++)
           if(strchr(s[i],ch)!=NULL)
			   printf("%d\n",a[i]);
		   
    
	
}
