; ModuleID = '2/329.c'
source_filename = "2/329.c"
target datalayout = "e-m:e-p270:32:32-p271:32:32-p272:64:64-i64:64-f80:128-n8:16:32:64-S128"
target triple = "x86_64-pc-linux-gnu"

@.str = private unnamed_addr constant [3 x i8] c"%d\00", align 1
@.str.1 = private unnamed_addr constant [6 x i8] c"%d %s\00", align 1
@.str.2 = private unnamed_addr constant [7 x i8] c"%c\0A%d\0A\00", align 1
@.str.3 = private unnamed_addr constant [4 x i8] c"%d\0A\00", align 1

; Function Attrs: noinline nounwind uwtable
define dso_local void @main() #0 {
  %1 = alloca [1000 x i32], align 16
  %2 = alloca [1000 x [30 x i8]], align 16
  %3 = alloca i8, align 1
  %4 = alloca [30 x i32], align 16
  %5 = alloca i32, align 4
  %6 = alloca i32, align 4
  %7 = alloca i32, align 4
  %8 = alloca i32, align 4
  %9 = bitcast [30 x i32]* %4 to i8*
  call void @llvm.memset.p0i8.i64(i8* align 16 %9, i8 0, i64 120, i1 false)
  store i32 0, i32* %8, align 4
  %10 = call i32 (i8*, ...) @__isoc99_scanf(i8* getelementptr inbounds ([3 x i8], [3 x i8]* @.str, i64 0, i64 0), i32* %7)
  store i32 0, i32* %5, align 4
  br label %11

11:                                               ; preds = %24, %0
  %12 = load i32, i32* %5, align 4
  %13 = load i32, i32* %7, align 4
  %14 = icmp slt i32 %12, %13
  br i1 %14, label %15, label %27

15:                                               ; preds = %11
  %16 = load i32, i32* %5, align 4
  %17 = sext i32 %16 to i64
  %18 = getelementptr inbounds [1000 x i32], [1000 x i32]* %1, i64 0, i64 %17
  %19 = load i32, i32* %5, align 4
  %20 = sext i32 %19 to i64
  %21 = getelementptr inbounds [1000 x [30 x i8]], [1000 x [30 x i8]]* %2, i64 0, i64 %20
  %22 = getelementptr inbounds [30 x i8], [30 x i8]* %21, i64 0, i64 0
  %23 = call i32 (i8*, ...) @__isoc99_scanf(i8* getelementptr inbounds ([6 x i8], [6 x i8]* @.str.1, i64 0, i64 0), i32* %18, i8* %22)
  br label %24

24:                                               ; preds = %15
  %25 = load i32, i32* %5, align 4
  %26 = add nsw i32 %25, 1
  store i32 %26, i32* %5, align 4
  br label %11

27:                                               ; preds = %11
  store i32 0, i32* %5, align 4
  br label %28

28:                                               ; preds = %59, %27
  %29 = load i32, i32* %5, align 4
  %30 = load i32, i32* %7, align 4
  %31 = icmp slt i32 %29, %30
  br i1 %31, label %32, label %62

32:                                               ; preds = %28
  store i8 65, i8* %3, align 1
  br label %33

33:                                               ; preds = %55, %32
  %34 = load i8, i8* %3, align 1
  %35 = sext i8 %34 to i32
  %36 = icmp sle i32 %35, 90
  br i1 %36, label %37, label %58

37:                                               ; preds = %33
  %38 = load i32, i32* %5, align 4
  %39 = sext i32 %38 to i64
  %40 = getelementptr inbounds [1000 x [30 x i8]], [1000 x [30 x i8]]* %2, i64 0, i64 %39
  %41 = getelementptr inbounds [30 x i8], [30 x i8]* %40, i64 0, i64 0
  %42 = load i8, i8* %3, align 1
  %43 = sext i8 %42 to i32
  %44 = call i8* @strchr(i8* %41, i32 %43) #4
  %45 = icmp ne i8* %44, null
  br i1 %45, label %46, label %54

46:                                               ; preds = %37
  %47 = load i8, i8* %3, align 1
  %48 = sext i8 %47 to i32
  %49 = sub nsw i32 %48, 65
  %50 = sext i32 %49 to i64
  %51 = getelementptr inbounds [30 x i32], [30 x i32]* %4, i64 0, i64 %50
  %52 = load i32, i32* %51, align 4
  %53 = add nsw i32 %52, 1
  store i32 %53, i32* %51, align 4
  br label %54

54:                                               ; preds = %46, %37
  br label %55

55:                                               ; preds = %54
  %56 = load i8, i8* %3, align 1
  %57 = add i8 %56, 1
  store i8 %57, i8* %3, align 1
  br label %33

58:                                               ; preds = %33
  br label %59

59:                                               ; preds = %58
  %60 = load i32, i32* %5, align 4
  %61 = add nsw i32 %60, 1
  store i32 %61, i32* %5, align 4
  br label %28

62:                                               ; preds = %28
  store i32 0, i32* %5, align 4
  br label %63

63:                                               ; preds = %80, %62
  %64 = load i32, i32* %5, align 4
  %65 = icmp sle i32 %64, 26
  br i1 %65, label %66, label %83

66:                                               ; preds = %63
  %67 = load i32, i32* %5, align 4
  %68 = sext i32 %67 to i64
  %69 = getelementptr inbounds [30 x i32], [30 x i32]* %4, i64 0, i64 %68
  %70 = load i32, i32* %69, align 4
  %71 = load i32, i32* %8, align 4
  %72 = icmp sgt i32 %70, %71
  br i1 %72, label %73, label %79

73:                                               ; preds = %66
  %74 = load i32, i32* %5, align 4
  %75 = sext i32 %74 to i64
  %76 = getelementptr inbounds [30 x i32], [30 x i32]* %4, i64 0, i64 %75
  %77 = load i32, i32* %76, align 4
  store i32 %77, i32* %8, align 4
  %78 = load i32, i32* %5, align 4
  store i32 %78, i32* %6, align 4
  br label %79

79:                                               ; preds = %73, %66
  br label %80

80:                                               ; preds = %79
  %81 = load i32, i32* %5, align 4
  %82 = add nsw i32 %81, 1
  store i32 %82, i32* %5, align 4
  br label %63

83:                                               ; preds = %63
  %84 = load i32, i32* %6, align 4
  %85 = add nsw i32 %84, 65
  %86 = load i32, i32* %8, align 4
  %87 = call i32 (i8*, ...) @printf(i8* getelementptr inbounds ([7 x i8], [7 x i8]* @.str.2, i64 0, i64 0), i32 %85, i32 %86)
  %88 = load i32, i32* %6, align 4
  %89 = add nsw i32 %88, 65
  %90 = trunc i32 %89 to i8
  store i8 %90, i8* %3, align 1
  store i32 0, i32* %5, align 4
  br label %91

91:                                               ; preds = %111, %83
  %92 = load i32, i32* %5, align 4
  %93 = load i32, i32* %7, align 4
  %94 = icmp slt i32 %92, %93
  br i1 %94, label %95, label %114

95:                                               ; preds = %91
  %96 = load i32, i32* %5, align 4
  %97 = sext i32 %96 to i64
  %98 = getelementptr inbounds [1000 x [30 x i8]], [1000 x [30 x i8]]* %2, i64 0, i64 %97
  %99 = getelementptr inbounds [30 x i8], [30 x i8]* %98, i64 0, i64 0
  %100 = load i8, i8* %3, align 1
  %101 = sext i8 %100 to i32
  %102 = call i8* @strchr(i8* %99, i32 %101) #4
  %103 = icmp ne i8* %102, null
  br i1 %103, label %104, label %110

104:                                              ; preds = %95
  %105 = load i32, i32* %5, align 4
  %106 = sext i32 %105 to i64
  %107 = getelementptr inbounds [1000 x i32], [1000 x i32]* %1, i64 0, i64 %106
  %108 = load i32, i32* %107, align 4
  %109 = call i32 (i8*, ...) @printf(i8* getelementptr inbounds ([4 x i8], [4 x i8]* @.str.3, i64 0, i64 0), i32 %108)
  br label %110

110:                                              ; preds = %104, %95
  br label %111

111:                                              ; preds = %110
  %112 = load i32, i32* %5, align 4
  %113 = add nsw i32 %112, 1
  store i32 %113, i32* %5, align 4
  br label %91

114:                                              ; preds = %91
  ret void
}

; Function Attrs: argmemonly nounwind willreturn
declare void @llvm.memset.p0i8.i64(i8* nocapture writeonly, i8, i64, i1 immarg) #1

declare dso_local i32 @__isoc99_scanf(i8*, ...) #2

; Function Attrs: nounwind readonly
declare dso_local i8* @strchr(i8*, i32) #3

declare dso_local i32 @printf(i8*, ...) #2


!llvm.module.flags = !{!0}
!llvm.ident = !{!1}

!0 = !{i32 1, !"wchar_size", i32 4}
!1 = !{!"clang version 10.0.0-4ubuntu1 "}
